0000                             ;VGM: 71T (70.861678.. T = 1/44100 s) for each sample
0000                          .BINFROM   PROGRAM_START   
0000                          .BINTO   PROGRAM_END   
0000                          .ENT   prog   
195F                          .ORG   (6639 - $90)   
195F                PROGRAM_START:      
195F                          .CPU   Z80   
195F                             ;00 	filetype 	fájl típus, 01h/11h: pufferelt/nem pufferelt
195F                             ;01 	copyprotect 	ha 00h akkor nem védett a fájl
195F                             ;02-03 	blocknumber lo/hi 	A program által elfoglalt 80h méretq blokkok száma
195F                             ;04 	lastblockbytes 	Az utolsó 80h-s blokkban található hasznos bájtok száma (0-127)
195F                             ;05-7F 	00h 	Mindig 00h
195F                             ;Nem pufferelt file-ok 16-bájtos fejléce
195F                             ;80 	00h 	Mindig 00h
195F                             ;81 	type 	01 - programfájl, 00 - adat
195F                             ;82-83 	prgsize lo/hi 	a program hossza
195F                             ;84 	autorun 	automatikus indítás, ha $ff akkor igen
195F                             ;85-8E 	00h 	Mindig 00h
195F                             ;8F 	versionnumber 	Változatszám (többnyire nem használják)
195F                             ;90-n 	databytes 	A program adatbájtjai, egészen a fájl végéig.
195F                             ; fileType - $01 buffered, $11 non-buffered
195F   11                     DB   $11   
1960                             ; copyprotect - $00 no protection
1960   00                     DB   $00   
1961                             ; number of blocks, lo-hi order. Program size in $80 sized blocks
1961   79                     DB   lsb(((PROGRAM_END - PROGRAM_START - 1) % $80) + 1)   
1962   00                     DB   msb(((PROGRAM_END - PROGRAM_START - 1) % $80) + 1)   
1963                             ; lastblock bytes (0-$7f)
1963   79                     DB   (PROGRAM_END - PROGRAM_START) % $80   
1964                             ; filled with zeroes
1964   00 00 00 00 00 00 00 00 00 00 00 00 00 00 00 00 00 00 00 00 00 00 00 00 00 00 00 00 00 00 00 00 00 00 00 00 00 00 00 00 00 00 00 00 00 00 00 00 00 00 00 00 00 00 00 00 00 00 00 00 00 00 00 00 00 00 00 00 00 00 00 00 00 00 00 00 00 00 00 00 00 00 00 00 00 00 00 00 00 00 00 00 00 00 00 00 00 00 00 00 00 00 00 00 00 00 00 00 00 00 00 00 00 00 00 00 00 00 00 00 00 00 00 BSZ   ($80-$05)   
19DF                             ; always $00
19DF   00                     DB   $00   
19E0                             ; type of file: 01h program file, $00 data file
19E0   01                     DB   $01   
19E1                             ; program size in bytes lo/hi order
19E1   F9                     DB   lsb(PROGRAM_END - PROGRAM_START)   
19E2   0A                     DB   msb(PROGRAM_END - PROGRAM_START)   
19E3                             ; autorun if $ff
19E3   00                     DB   $00   
19E4                             ; always $00
19E4   00 00 00 00 00 00 00 00 00 00 00 BSZ   ($90-$85)   
19EF                          .ORG   6639   
19EF   0F 0A 00 DD            DB   0FH,0AH,0,0DDH   
19F3   20 55 53 52            DB   " USR"   
19F7   96 36 36 35 39         DB   96H,"6659"   
19FC   95 FF 00 00 00 00 00   DB   95H,0FFH,0,0,0,0,0   ; 20 byte program header
1A03                             ; 
1A03                PROG:        
1A03   C3 0F 1A               JP   MAIN   ; program start
1A06                STACK_STORE:      
1A06   75 19                  DW   $1975   
1A08                PORT_BASE:      
1A08   75                     DB   $75   
1A09                SND_MX:      
1A09   05                     DB   0x05   
1A0A   53 6E 64 4D 78         DB   "SndMx"   
1A0F                MAIN:        
1A0F   F3                     DI      
1A10   C5                     PUSH   bc   
1A11   D5                     PUSH   de   
1A12   3E 10                  LD   a,$10   
1A14   32 08 1A               LD   (PORT_BASE),a   
1A17   11 40 00               LD   de,$0040   
1A1A                CHECK_ID:      
1A1A   21 09 1A               LD   hl,SND_MX   
1A1D   06 06                  LD   b,$06   
1A1F                CHECK_ID_LOOP:      
1A1F   1A                     LD   a,(de)   
1A20   BE                     CP   (hl)   
1A21   23                     INC   hl   
1A22   13                     INC   de   
1A23   20 04                  JR   nz,NO_MATCH   
1A25   10 F8                  DJNZ   check_id_loop   
1A27   18 23                  JR   PLAY   
1A29                NO_MATCH:      
1A29   3A 08 1A               LD   a,(PORT_BASE)   
1A2C   C6 10                  ADD   a,$10   
1A2E   32 08 1A               LD   (PORT_BASE),a   
1A31   FE 50                  CP   $50   
1A33   28 10                  JR   z,NO_CARD_FOUND   
1A35   0F                     RRCA      
1A36   0F                     RRCA      
1A37   0F                     RRCA      
1A38   0F                     RRCA      
1A39   47                     LD   b,a   
1A3A   3E 10                  LD   a,$10   
1A3C                MEM_BASE_LOOP:      
1A3C   C6 30                  ADD   a,$30   
1A3E   10 FC                  DJNZ   MEM_BASE_LOOP   
1A40   5F                     LD   e,a   
1A41   AF                     XOR   a   
1A42   57                     LD   d,a   
1A43   18 D5                  JR   CHECK_ID   
1A45                NO_CARD_FOUND:      
1A45   D1                     POP   de   
1A46   C1                     POP   bc   
1A47   21 FF FF               LD   hl,$FFFF   
1A4A   F3                     DI      
1A4B   C9                     RET      
1A4C                PLAY:        
1A4C   11 4E 1C               LD   de,SONG+$34   
1A4F   2A 4E 1C               LD   hl,(SONG + $34)   
1A52   19                     ADD   hl,de   
1A53   3A 08 1A               LD   a,(PORT_BASE)   
1A56   4F                     LD   c,a   
1A57   C6 03                  ADD   a,3   
1A59   32 B2 1B               LD   (SAA_OUT_1+1),a   
1A5C   3D                     DEC   a   
1A5D   32 B5 1B               LD   (SAA_OUT_2+1),a   
1A60   C6 02                  ADD   a,2   
1A62   32 BE 1B               LD   (YM_OUT_1+1),a   
1A65   3C                     INC   a   
1A66   32 C2 1B               LD   (YM_OUT_2+1),a   
1A69                             ; SP is used to fetch 16bit data fast(-er than normal)
1A69   ED 73 06 1A            LD   (STACK_STORE),SP   
1A6D   3A 11 0B               LD   a,($0b11)   
1A70   E6 F0                  AND   $f0   
1A72   F6 07                  OR   $07   
1A74   D3 03                  OUT   ($03),a   
1A76                             ; don't start until every key is released in the row of Space
1A76                KEY_PRESSED_LOOP:      
1A76   DB 58                  IN   a,($58)   
1A78   FE FF                  CP   $FF   
1A7A   20 FA                  JR   nz,key_pressed_loop   
1A7C                PLAY_LOOP:      
1A7C   7E                     LD   a,(hl)   
1A7D   23                     INC   hl   
1A7E   FE 50                  CP   $50   
1A80   28 32                  JR   z,PLAY_SN_TONE   
1A82   FE 70                  CP   $70   
1A84   28 F6                  JR   z,PLAY_LOOP   ; done
1A86   FE 71                  CP   $71   
1A88   28 32                  JR   z,SKIP_1_FRAME   ; done
1A8A   FE 72                  CP   $72   
1A8C   28 31                  JR   z,SKIP_2_FRAMES   ; done
1A8E   47                     LD   b,a   
1A8F   E6 70                  AND   $70   
1A91   FE 70                  CP   $70   
1A93   78                     LD   a,b   
1A94   28 37                  JR   z,SKIP_FRAMES_SHORT   ; done
1A96   FE 61                  CP   $61   
1A98   28 4C                  JR   z,SKIP_FRAMES_LONG   ; done
1A9A   FE 5A                  CP   $5A   
1A9C   CA B9 1B               JP   z,PLAY_YM3812_TONE   
1A9F   FE BD                  CP   $BD   
1AA1   CA AC 1B               JP   z,PLAY_SAA1099_TONE   
1AA4   FE 62                  CP   $62   
1AA6   28 60                  JR   z,SKIP_60TH   ; done
1AA8   FE 63                  CP   $63   
1AAA   CA 4B 1B               JP   z,SKIP_50TH   
1AAD   FE 66                  CP   $66   
1AAF   CA 93 1B               JP   z,PLAY_SONG_FINISH   
1AB2                             ; not recognized
1AB2   18 C8                  JR   play_loop   
1AB4                PLAY_SN_TONE:      
1AB4   7E                     LD   a,(hl)   
1AB5   ED 79                  OUT   (c),a   
1AB7   23                     INC   hl   
1AB8   3C                     INC   a   
1AB9   C3 7C 1A               JP   play_loop   
1ABC                SKIP_1_FRAME:      
1ABC   C3 7C 1A               JP   play_loop   
1ABF                SKIP_2_FRAMES:      
1ABF   DD 2A 75 19            LD   ix,($1975)   ; 20 T
1AC3   DD 2A 75 19            LD   ix,($1975)   ; 20 T
1AC7   13                     INC   de   
1AC8   13                     INC   de   
1AC9   13                     INC   de   
1ACA   C3 7C 1A               JP   play_loop   
1ACD                SKIP_FRAMES_SHORT:      
1ACD   E6 0F                  AND   $0f   
1ACF   D6 02                  SUB   2   
1AD1   47                     LD   b,a   
1AD2   DD 23                  INC   ix   ; filler
1AD4   13                     INC   de   ; filler
1AD5                SHORT_LOOP:      
1AD5   DD 2A 75 19            LD   ix,($1975)   ; 20 T
1AD9   DD 2A 75 19            LD   ix,($1975)   ; 20 T
1ADD   DD 23                  INC   ix   ; 10 T
1ADF   CB 27                  SLA   A   ; 8T
1AE1   10 F2                  DJNZ   SHORT_LOOP   ; 13T on jump. 8 on done
1AE3   C3 7C 1A               JP   play_loop   
1AE6                SKIP_FRAMES_LONG:      
1AE6   5E                     LD   e,(hl)   
1AE7   23                     INC   hl   
1AE8   56                     LD   d,(hl)   
1AE9   23                     INC   hl   
1AEA   1B                     DEC   de   
1AEB   1B                     DEC   de   
1AEC   1B                     DEC   de   
1AED   1B                     DEC   de   
1AEE                             ; 30T
1AEE   DB 58                  IN   a,($58)   ; 11T
1AF0   CB 6F                  BIT   5,a   ; 8T
1AF2   28 52                  JR   z,PLAY_SONG_STOPPED   ; 7T
1AF4   00                     NOP      ; 4T
1AF5   00                     NOP      ; 4 T
1AF6   3E FF                  LD   a,$FF   
1AF8                LONG_LOOP:      
1AF8                             ; 49 T
1AF8   DD 2A 75 19            LD   ix,($1975)   ; 20 T
1AFC   DD 09                  ADD   ix,bc   ; 15
1AFE   DD 23                  INC   ix   ; 10 T
1B00   00                     NOP      ; 4
1B01                             ; ---
1B01   1B                     DEC   de   
1B02   BA                     CP   d   
1B03   20 F3                  JR   nz,LONG_LOOP   
1B05   C3 7C 1A               JP   play_loop   
1B08                SKIP_60TH:      
1B08                             ; all: 52185 T  (735*71)
1B08                             ; wait here: 52185-141=52044
1B08   06 F4                  LD   b,244   
1B0A                NTSC_LOOP:      
1B0A   DD 2A 75 19            LD   ix,($1975)   ; 20 T
1B0E   DD 2A 75 19            LD   ix,($1975)   ; 20 T
1B12   DD 2A 75 19            LD   ix,($1975)   ; 20 T
1B16   DD 2A 75 19            LD   ix,($1975)   ; 20 T
1B1A   DD 2A 75 19            LD   ix,($1975)   ; 20 T
1B1E   DD 2A 75 19            LD   ix,($1975)   ; 20 T
1B22   DD 2A 75 19            LD   ix,($1975)   ; 20 T
1B26   DD 2A 75 19            LD   ix,($1975)   ; 20 T
1B2A   DD 2A 75 19            LD   ix,($1975)   ; 20 T
1B2E   DD 2A 75 19            LD   ix,($1975)   ; 20 T
1B32   10 D6                  DJNZ   NTSC_LOOP   
1B34                             ; 30T
1B34   DB 58                  IN   a,($58)   ; 11T
1B36   CB 6F                  BIT   5,a   ; 8T
1B38   28 0C                  JR   z,PLAY_SONG_STOPPED   ; 7T
1B3A   00                     NOP      ; 4T
1B3B   DD 2A 75 19            LD   ix,($1975)   ; 20 T
1B3F   DD 2A 75 19            LD   ix,($1975)   ; 20 T
1B43   C3 7C 1A               JP   play_loop   
1B46                PLAY_SONG_STOPPED:      
1B46   21 01 00               LD   hl,1   
1B49   18 4B                  JR   PLAY_SONG_FINISH_HL_SET   
1B4B                SKIP_50TH:      
1B4B                             ; all: 62500 T (882*71 samples, 20ms)
1B4B                             ; wait here: 62313 T (62500 - 187)
1B4B   06 C7                  LD   b,199   ; 7T
1B4D                PAL_LOOP:      
1B4D   DD 2A 75 19            LD   ix,($1975)   ; 20 T
1B51   DD 2A 75 19            LD   ix,($1975)   ; 20 T
1B55   DD 2A 75 19            LD   ix,($1975)   ; 20 T
1B59   DD 2A 75 19            LD   ix,($1975)   ; 20 T
1B5D   DD 2A 75 19            LD   ix,($1975)   ; 20 T
1B61   DD 2A 75 19            LD   ix,($1975)   ; 20 T
1B65   DD 2A 75 19            LD   ix,($1975)   ; 20 T
1B69   DD 2A 75 19            LD   ix,($1975)   ; 20 T
1B6D   DD 2A 75 19            LD   ix,($1975)   ; 20 T
1B71   DD 2A 75 19            LD   ix,($1975)   ; 20 T
1B75   DD 2A 75 19            LD   ix,($1975)   ; 20 T
1B79   DD 2A 75 19            LD   ix,($1975)   ; 20 T
1B7D   DD 2A 75 19            LD   ix,($1975)   ; 20 T
1B81   DD 2A 75 19            LD   ix,($1975)   ; 20 T
1B85   DD 2A 75 19            LD   ix,($1975)   ; 20 T
1B89   10 C2                  DJNZ   PAL_LOOP   ; 13/8T
1B8B   DD 2A 75 19            LD   ix,($1975)   ; 20 T
1B8F   AF                     XOR   A   ; 4T
1B90   C3 7C 1A               JP   play_loop   
1B93                PLAY_SONG_FINISH:      
1B93   21 00 00               LD   hl,0   
1B96                PLAY_SONG_FINISH_HL_SET:      
1B96   ED 7B 06 1A            LD   SP,(STACK_STORE)   
1B9A   D1                     POP   de   
1B9B   C1                     POP   bc   
1B9C   CD C6 1B               CALL   mute_chips   
1B9F                KEY_PRESSED_LOOP_FINISH:      
1B9F   DB 58                  IN   a,($58)   
1BA1   FE FF                  CP   $ff   
1BA3   20 FA                  JR   nz,key_pressed_loop_finish   
1BA5   3A 11 0B               LD   a,($0b11)   
1BA8   D3 03                  OUT   ($03),a   
1BAA   FB                     EI      
1BAB   C9                     RET      
1BAC                PLAY_SAA1099_TONE:      
1BAC   F9                     LD   sp,hl   
1BAD   D1                     POP   de   
1BAE   23                     INC   hl   
1BAF   23                     INC   hl   
1BB0   7B                     LD   a,e   
1BB1                SAA_OUT_1:      
1BB1   D3 33                  OUT   ($33),a   
1BB3   7A                     LD   a,d   
1BB4                SAA_OUT_2:      
1BB4   D3 32                  OUT   ($32),a   
1BB6   C3 7C 1A               JP   play_loop   
1BB9                PLAY_YM3812_TONE:      
1BB9   F9                     LD   sp,hl   
1BBA   D1                     POP   de   
1BBB   23                     INC   hl   
1BBC   7B                     LD   a,e   
1BBD                YM_OUT_1:      
1BBD   D3 34                  OUT   ($34),a   ; Must be 12T (3.3us) between addr and data writes
1BBF   7A                     LD   a,d   ; 4T
1BC0   23                     INC   hl   ; 6T
1BC1                             ;             + 7T: M1 plus M2 cycles of OUT (n),A
1BC1                YM_OUT_2:      
1BC1   D3 35                  OUT   ($35),a   
1BC3                             ; must be 71T (23us) between data and next addr write. It's 165T.
1BC3   C3 7C 1A               JP   play_loop   
1BC6                MUTE_CHIPS:      
1BC6   CD D0 1B               CALL   MUTE_SN76489   
1BC9   CD ED 1B               CALL   MUTE_SAA1099   
1BCC   CD FC 1B               CALL   MUTE_YM3812   
1BCF   C9                     RET      
1BD0                MUTE_SN76489:      
1BD0   3E 9F                  LD   a,10011111b   
1BD2   ED 79                  OUT   (C),a   
1BD4   CD EC 1B               CALL   WAIT_SOME_TIME   ; call+ret = 27T
1BD7   3E BF                  LD   a,10111111b   ; 8T, 27+8=35T. SN chip is safely written (>28T)
1BD9   ED 79                  OUT   (C),a   
1BDB   CD EC 1B               CALL   WAIT_SOME_TIME   
1BDE   3E DF                  LD   a,11011111b   
1BE0   ED 79                  OUT   (C),a   
1BE2   CD EC 1B               CALL   WAIT_SOME_TIME   
1BE5   3E FF                  LD   a,11111111b   
1BE7   ED 79                  OUT   (C),a   
1BE9   CD EC 1B               CALL   WAIT_SOME_TIME   
1BEC                WAIT_SOME_TIME:      
1BEC   C9                     RET      
1BED                MUTE_SAA1099:      
1BED   79                     LD   a,c   
1BEE   C6 03                  ADD   a,$03   
1BF0   4F                     LD   c,a   
1BF1   3E 1C                  LD   a,$1C   
1BF3   ED 79                  OUT   (C),a   
1BF5   AF                     XOR   a   
1BF6   0D                     DEC   C   
1BF7   ED 79                  OUT   (C),a   
1BF9   0D                     DEC   C   
1BFA   0D                     DEC   C   
1BFB   C9                     RET      
1BFC                MUTE_YM3812:      
1BFC   79                     LD   a,c   
1BFD   C6 04                  ADD   a,$04   
1BFF   4F                     LD   c,a   
1C00   06 00                  LD   b,$00   
1C02                YM3812_RESET_LOOP:      
1C02   78                     LD   a,b   
1C03   ED 79                  OUT   (C),a   
1C05   00                     NOP      
1C06   0C                     INC   C   
1C07   AF                     XOR   a   
1C08   ED 79                  OUT   (C),a   
1C0A   CD EC 1B               CALL   WAIT_SOME_TIME   ; call+ret = 27T
1C0D   CD EC 1B               CALL   WAIT_SOME_TIME   
1C10   CD EC 1B               CALL   WAIT_SOME_TIME   
1C13   0D                     DEC   c   
1C14   04                     INC   b   
1C15   20 EB                  JR   nz,YM3812_RESET_LOOP   
1C17   0D                     DEC   c   
1C18   0D                     DEC   c   
1C19   C9                     RET      
1C1A                SONG:        
1C1A   56 67 6D 20 3A 08 00 00 50 01 00 00 00 70 17 00 00 00 00 00 6A 07 00 00 60 DA 02 00 00 00 00 00 00 00 00 00 00 00 00 00 0C 00 11 00 00 00 00 00 00 00 00 00 0C 00 00 00 00 00 00 00 00 00 00 00 50 9F 77 50 BF 78 50 DF 71 50 FF 61 15 06 50 89 72 50 05 72 50 94 73 50 CA 71 50 05 72 50 D4 7F 74 50 A7 71 50 07 72 50 B4 61 89 5E 50 95 73 50 D5 76 50 B5 61 D4 02 50 96 73 50 D6 76 50 B6 61 D4 02 50 97 73 50 D7 76 50 B7 61 D4 02 50 98 73 50 D8 76 50 B8 61 D4 02 50 99 73 50 D9 76 50 B9 61 D4 02 50 9A 73 50 DA 76 50 BA 61 D4 02 50 9B 73 50 DB 76 50 BB 61 D4 02 50 9C 73 50 DC 76 50 BC 61 D4 02 50 9D 73 50 DD 76 50 BD 61 D4 02 50 9E 73 50 DE 76 50 BE 61 D4 02 50 9F 73 50 DF 76 50 BF 61 54 0E 50 80 72 50 05 71 50 94 73 50 C1 72 50 05 71 50 D4 7A 50 AA 72 50 06 72 50 B4 61 BC 02 50 95 73 50 D5 76 50 B5 61 D4 02 50 96 73 50 D6 76 50 B6 61 D4 02 50 97 73 50 D7 76 50 B7 61 D4 02 50 98 73 50 D8 76 50 B8 61 D4 02 50 99 73 50 D9 76 50 B9 61 D4 02 50 9A 73 50 DA 76 50 BA 61 D4 02 50 9B 73 50 DB 76 50 BB 61 D4 02 50 9C 73 50 DC 75 50 89 72 50 05 72 50 94 72 50 CA 72 50 05 72 50 D4 76 50 BC 75 50 A7 72 50 07 72 50 B4 61 B3 02 50 95 73 50 D5 76 50 B5 61 D4 02 50 96 73 50 D6 76 50 B6 61 D4 02 50 97 73 50 D7 76 50 B7 61 D4 02 50 98 73 50 D8 76 50 B8 61 D4 02 50 99 73 50 D9 76 50 B9 61 D4 02 50 9A 73 50 DA 76 50 BA 61 D4 02 50 9B 73 50 DB 76 50 BB 61 D4 02 50 9C 73 50 DC 75 50 8A 72 50 06 72 50 94 72 50 CB 72 50 06 72 50 D4 76 50 BC 76 50 AE 72 50 08 71 50 B4 61 B3 02 50 95 73 50 D5 76 50 B5 61 D4 02 50 96 73 50 D6 76 50 B6 61 D4 02 50 97 73 50 D7 76 50 B7 61 D4 02 50 98 73 50 D8 76 50 B8 61 D4 02 50 99 73 50 D9 76 50 B9 61 D4 02 50 9A 73 50 DA 76 50 BA 61 D4 02 50 9B 73 50 DB 76 50 BB 61 D4 02 50 9C 73 50 DC 76 50 BC 61 D4 02 50 9D 73 50 DD 76 50 BD 61 D4 02 50 9E 73 50 DE 76 50 BE 61 D4 02 50 9F 73 50 DF 76 50 BF 61 54 0E 50 87 72 50 07 71 50 94 73 50 C8 72 50 07 72 50 D4 7A 50 AF 72 50 09 71 50 B4 61 BC 02 50 95 73 50 D5 76 50 B5 61 D4 02 50 96 73 50 D6 76 50 B6 61 D4 02 50 97 73 50 D7 76 50 B7 61 D4 02 50 98 73 50 D8 76 50 B8 61 D4 02 50 99 73 50 D9 76 50 B9 61 D4 02 50 9A 73 50 DA 76 50 BA 61 D4 02 50 9B 73 50 DB 76 50 BB 61 D4 02 50 9C 73 50 DC 76 50 BC 61 D4 02 50 9D 73 50 DD 76 50 BD 61 D4 02 50 9E 73 50 DE 76 50 BE 61 D4 02 50 9F 73 50 DF 76 50 BF 61 54 0E 50 8A 72 50 06 72 50 94 72 50 CB 72 50 06 72 50 D4 7A 50 AE 72 50 08 71 50 B4 61 BC 02 50 95 73 50 D5 76 50 B5 61 D4 02 50 96 73 50 D6 76 50 B6 61 D4 02 50 97 73 50 D7 76 50 B7 61 D4 02 50 98 73 50 D8 76 50 B8 61 D4 02 50 99 73 50 D9 76 50 B9 61 D4 02 50 9A 73 50 DA 76 50 BA 61 D4 02 50 9B 73 50 DB 76 50 BB 61 D4 02 50 9C 73 50 DC 76 50 BC 61 D4 02 50 9D 73 50 DD 76 50 BD 61 D4 02 50 9E 73 50 DE 76 50 BE 61 D4 02 50 9F 73 50 DF 76 50 BF 61 54 0E 50 89 72 50 05 72 50 94 72 50 CA 72 50 05 72 50 D4 7A 50 A7 72 50 07 71 50 B4 61 BC 02 50 95 73 50 D5 76 50 B5 61 D4 02 50 96 73 50 D6 76 50 B6 61 D4 02 50 97 73 50 D7 76 50 B7 61 D4 02 50 98 73 50 D8 76 50 B8 61 D4 02 50 99 73 50 D9 76 50 B9 61 D4 02 50 9A 73 50 DA 76 50 BA 61 D4 02 50 9B 73 50 DB 76 50 BB 61 D4 02 50 9C 73 50 DC 76 50 BC 61 D4 02 50 9D 73 50 DD 76 50 BD 61 D4 02 50 9E 73 50 DE 76 50 BE 61 D4 02 50 9F 73 50 DF 76 50 BF 61 54 0E 50 87 72 50 07 71 50 94 73 50 C8 72 50 07 71 50 D4 7A 50 AF 72 50 09 72 50 B4 61 BC 02 50 95 73 50 D5 76 50 B5 61 D4 02 50 96 73 50 D6 76 50 B6 61 D4 02 50 97 73 50 D7 76 50 B7 61 D4 02 50 98 73 50 D8 76 50 B8 61 D4 02 50 99 73 50 D9 76 50 B9 61 D4 02 50 9A 73 50 DA 76 50 BA 61 D4 02 50 9B 73 50 DB 76 50 BB 61 D4 02 50 9C 73 50 DC 75 50 8A 72 50 06 71 50 94 73 50 CB 72 50 06 72 50 D4 76 50 BC 75 50 AE 72 50 08 72 50 B4 61 B3 02 50 95 73 50 D5 76 50 B5 61 D4 02 50 96 73 50 D6 76 50 B6 61 D4 02 50 97 73 50 D7 76 50 B7 61 D4 02 50 98 73 50 D8 76 50 B8 61 D4 02 50 99 73 50 D9 76 50 B9 61 D4 02 50 9A 73 50 DA 76 50 BA 61 D4 02 50 9B 73 50 DB 76 50 BB 61 D4 02 50 9C 73 50 DC 75 50 87 72 50 07 72 50 94 72 50 C8 72 50 07 72 50 D4 76 50 BC 75 50 AF 72 50 09 72 50 B4 61 B3 02 50 95 73 50 D5 76 50 B5 61 D4 02 50 96 73 50 D6 76 50 B6 61 D4 02 50 97 73 50 D7 76 50 B7 61 D4 02 50 98 73 50 D8 76 50 B8 61 D4 02 50 99 73 50 D9 76 50 B9 61 D4 02 50 9A 73 50 DA 76 50 BA 61 D4 02 50 9B 73 50 DB 76 50 BB 61 D4 02 50 9C 73 50 DC 75 50 86 72 50 08 72 50 94 72 50 C7 72 50 08 72 50 D4 76 50 BC 75 50 A3 72 50 0B 72 50 B4 61 B3 02 50 95 73 50 D5 76 50 B5 61 D4 02 50 96 73 50 D6 76 50 B6 61 D4 02 50 97 73 50 D7 76 50 B7 61 D4 02 50 98 73 50 D8 76 50 B8 61 D4 02 50 99 73 50 D9 76 50 B9 61 D4 02 50 9A 73 50 DA 76 50 BA 61 D4 02 50 9B 73 50 DB 76 50 BB 61 D4 02 50 9C 73 50 DC 77 50 8F 72 50 09 72 50 94 72 50 C0 72 50 0A 72 50 D4 76 50 BC 7B 50 A5 72 50 0D 72 50 B4 61 48 0B 50 95 73 50 D5 76 50 B5 61 D4 02 50 96 73 50 D6 76 50 B6 61 D4 02 50 97 73 50 D7 76 50 B7 61 D4 02 50 98 73 50 D8 76 50 B8 61 D4 02 50 99 73 50 D9 76 50 B9 61 D4 02 50 9A 73 50 DA 76 50 BA 61 D4 02 50 9B 73 50 DB 76 50 BB 61 D4 02 50 9C 73 50 DC 76 50 BC 61 D4 02 50 9D 73 50 DD 76 50 BD 61 D4 02 50 9E 73 50 DE 76 50 BE 61 D4 02 50 9F 73 50 DF 76 50 BF 61 36 11 50 86 72 50 08 71 50 94 73 50 C7 72 50 08 71 50 D4 7F 71 50 A3 72 50 0B 71 50 B4 61 A3 30 50 95 73 50 D5 76 50 B5 61 D4 02 50 96 73 50 D6 76 50 B6 61 D4 02 50 97 73 50 D7 76 50 B7 61 D4 02 50 98 73 50 D8 76 50 B8 61 D4 02 50 99 73 50 D9 76 50 B9 61 D4 02 50 9A 73 50 DA 76 50 BA 61 D4 02 50 9B 73 50 DB 76 50 BB 61 D4 02 50 9C 73 50 DC 7E 50 94 78 50 D4 76 50 BC 7F 50 B4 61 8C 5E 50 95 73 50 D5 76 50 B5 61 D4 02 50 96 73 50 D6 76 50 B6 61 D4 02 50 97 73 50 D7 76 50 B7 61 D4 02 50 98 73 50 D8 76 50 B8 61 D4 02 50 99 73 50 D9 76 50 B9 61 D4 02 50 9A 73 50 DA 76 50 BA 61 D4 02 50 9B 73 50 DB 76 50 BB 61 D4 02 50 9C 73 50 DC 76 50 BC 61 D4 02 50 9D 73 50 DD 76 50 BD 61 D4 02 50 9E 73 50 DE 76 50 BE 61 D4 02 50 9F 73 50 DF 76 50 BF 61 11 0F 66 47 64 33 20 00 01 00 00 B4 00 00 00 53 00 74 00 61 00 72 00 74 00 00 00 B9 30 BF 30 FC 30 C8 30 00 00 59 00 69 00 65 00 20 00 41 00 72 00 20 00 4B 00 75 00 6E 00 67 00 2D 00 46 00 75 00 00 00 A4 30 FC 30 FB 30 A2 30 EB 30 FB 30 AB 30 F3 30 D5 30 FC 30 00 00 41 00 72 00 63 00 61 00 64 00 65 00 20 00 4D 00 61 00 63 00 68 00 69 00 6E 00 65 00 00 00 00 00 4D 00 69 00 6B 00 69 00 20 00 48 00 69 00 67 00 61 00 73 00 68 00 69 00 6E 00 6F 00 00 00 00 00 31 00 39 00 38 00 35 00 2D 00 30 00 31 00 00 00 53 00 6F 00 6E 00 69 00 63 00 20 00 6F 00 66 00 20 00 38 00 21 00 00 00 00 00 .INCBIN   "yie-ar-kungfu.vgm"   
2458                PROGRAM_END:      


PROGRAM_START:      195F DEFINED AT LINE 9
                    > USED AT LINE 3
                    > USED AT LINE 30 IN CASheader.bin
PROG:               1A03 DEFINED AT LINE 18
                    > USED AT LINE 5
STACK_STORE:        1A06 DEFINED AT LINE 20
                    > USED AT LINE 89
                    > USED AT LINE 261
PORT_BASE:          1A08 DEFINED AT LINE 22
                    > USED AT LINE 33
                    > USED AT LINE 47
                    > USED AT LINE 49
                    > USED AT LINE 76
SND_MX:             1A09 DEFINED AT LINE 24
                    > USED AT LINE 36
MAIN:               1A0F DEFINED AT LINE 28
                    > USED AT LINE 19
CHECK_ID:           1A1A DEFINED AT LINE 35
                    > USED AT LINE 64
CHECK_ID_LOOP:      1A1F DEFINED AT LINE 38
                    > USED AT LINE 44
NO_MATCH:           1A29 DEFINED AT LINE 46
                    > USED AT LINE 43
MEM_BASE_LOOP:      1A3C DEFINED AT LINE 58
                    > USED AT LINE 60
NO_CARD_FOUND:      1A45 DEFINED AT LINE 65
                    > USED AT LINE 51
PLAY:               1A4C DEFINED AT LINE 72
                    > USED AT LINE 45
KEY_PRESSED_LOOP:   1A76 DEFINED AT LINE 96
                    > USED AT LINE 99
PLAY_LOOP:          1A7C DEFINED AT LINE 101
                    > USED AT LINE 107
                    > USED AT LINE 131
                    > USED AT LINE 138
                    > USED AT LINE 141
                    > USED AT LINE 148
                    > USED AT LINE 165
                    > USED AT LINE 197
                    > USED AT LINE 225
                    > USED AT LINE 256
                    > USED AT LINE 285
                    > USED AT LINE 300
PLAY_SN_TONE:       1AB4 DEFINED AT LINE 133
                    > USED AT LINE 105
SKIP_1_FRAME:       1ABC DEFINED AT LINE 140
                    > USED AT LINE 109
SKIP_2_FRAMES:      1ABF DEFINED AT LINE 142
                    > USED AT LINE 111
SKIP_FRAMES_SHORT:  1ACD DEFINED AT LINE 150
                    > USED AT LINE 116
SHORT_LOOP:         1AD5 DEFINED AT LINE 158
                    > USED AT LINE 163
SKIP_FRAMES_LONG:   1AE6 DEFINED AT LINE 166
                    > USED AT LINE 118
LONG_LOOP:          1AF8 DEFINED AT LINE 185
                    > USED AT LINE 195
SKIP_60TH:          1B08 DEFINED AT LINE 198
                    > USED AT LINE 124
NTSC_LOOP:          1B0A DEFINED AT LINE 202
                    > USED AT LINE 213
PLAY_SONG_STOPPED:  1B46 DEFINED AT LINE 227
                    > USED AT LINE 179
                    > USED AT LINE 218
SKIP_50TH:          1B4B DEFINED AT LINE 231
                    > USED AT LINE 126
PAL_LOOP:           1B4D DEFINED AT LINE 235
                    > USED AT LINE 251
PLAY_SONG_FINISH:   1B93 DEFINED AT LINE 258
                    > USED AT LINE 128
PLAY_SONG_FINISH_HL_SET: 1B96 DEFINED AT LINE 260
                    > USED AT LINE 229
KEY_PRESSED_LOOP_FINISH: 1B9F DEFINED AT LINE 265
                    > USED AT LINE 268
PLAY_SAA1099_TONE:  1BAC DEFINED AT LINE 273
                    > USED AT LINE 122
SAA_OUT_1:          1BB1 DEFINED AT LINE 279
                    > USED AT LINE 80
SAA_OUT_2:          1BB4 DEFINED AT LINE 282
                    > USED AT LINE 82
PLAY_YM3812_TONE:   1BB9 DEFINED AT LINE 287
                    > USED AT LINE 120
YM_OUT_1:           1BBD DEFINED AT LINE 292
                    > USED AT LINE 84
YM_OUT_2:           1BC1 DEFINED AT LINE 297
                    > USED AT LINE 86
MUTE_CHIPS:         1BC6 DEFINED AT LINE 301
                    > USED AT LINE 264
MUTE_SN76489:       1BD0 DEFINED AT LINE 307
                    > USED AT LINE 302
WAIT_SOME_TIME:     1BEC DEFINED AT LINE 321
                    > USED AT LINE 310
                    > USED AT LINE 313
                    > USED AT LINE 316
                    > USED AT LINE 319
                    > USED AT LINE 348
                    > USED AT LINE 349
                    > USED AT LINE 350
MUTE_SAA1099:       1BED DEFINED AT LINE 324
                    > USED AT LINE 303
MUTE_YM3812:        1BFC DEFINED AT LINE 336
                    > USED AT LINE 304
YM3812_RESET_LOOP:  1C02 DEFINED AT LINE 341
                    > USED AT LINE 353
SONG:               1C1A DEFINED AT LINE 361
                    > USED AT LINE 73
                    > USED AT LINE 74
PROGRAM_END:        2458 DEFINED AT LINE 363
                    > USED AT LINE 4
                    > USED AT LINE 30 IN CASheader.bin
